target datalayout = "e-m:e-p270:32:32-p271:32:32-p272:64:64-i64:64-i128:128-f80:128-n8:16:32:64-S128"
target triple = "x86_64-pc-linux-gnu"

%struct.rev_struct = type { ptr, i64, i32, i32, i32 }

; Function Attrs: inlinehint nounwind uwtable
define internal i32 @read_le_uint32(ptr noundef %0) #4 {
  %2 = alloca ptr, align 8
  store ptr %0, ptr %2, align 8, !tbaa !115
  %3 = load ptr, ptr %2, align 8, !tbaa !115
  %4 = load i32, ptr %3, align 4, !tbaa !10
  ret i32 %4
}

; Function Attrs: inlinehint nounwind uwtable
define internal void @rev_read_mrp(ptr noundef %0) #4 {
  %2 = alloca ptr, align 8
  %3 = alloca i32, align 4
  %4 = alloca i32, align 4
  %5 = alloca i32, align 4
  %6 = alloca i32, align 4
  %7 = alloca i32, align 4
  %8 = alloca i32, align 4
  %9 = alloca i32, align 4
  store ptr %0, ptr %2, align 8, !tbaa !94
  call void @llvm.lifetime.start.p0(i64 4, ptr %3) #7
  call void @llvm.lifetime.start.p0(i64 4, ptr %4) #7
  call void @llvm.lifetime.start.p0(i64 4, ptr %5) #7
  call void @llvm.lifetime.start.p0(i64 4, ptr %6) #7
  %10 = load ptr, ptr %2, align 8, !tbaa !94
  %11 = getelementptr inbounds nuw %struct.rev_struct, ptr %10, i32 0, i32 2
  %12 = load i32, ptr %11, align 8, !tbaa !100
  %13 = icmp ugt i32 %12, 32
  br i1 %13, label %14, label %15

14:                                               ; preds = %1
  store i32 1, ptr %7, align 4
  br label %176

15:                                               ; preds = %1
  store i32 0, ptr %3, align 4, !tbaa !10
  %16 = load ptr, ptr %2, align 8, !tbaa !94
  %17 = getelementptr inbounds nuw %struct.rev_struct, ptr %16, i32 0, i32 3
  %18 = load i32, ptr %17, align 4, !tbaa !98
  %19 = icmp sgt i32 %18, 3
  br i1 %19, label %20, label %34

20:                                               ; preds = %15
  %21 = load ptr, ptr %2, align 8, !tbaa !94
  %22 = getelementptr inbounds nuw %struct.rev_struct, ptr %21, i32 0, i32 0
  %23 = load ptr, ptr %22, align 8, !tbaa !96
  %24 = getelementptr inbounds i8, ptr %23, i64 -3
  %25 = call i32 @read_le_uint32(ptr noundef %24)
  store i32 %25, ptr %3, align 4, !tbaa !10
  %26 = load ptr, ptr %2, align 8, !tbaa !94
  %27 = getelementptr inbounds nuw %struct.rev_struct, ptr %26, i32 0, i32 0
  %28 = load ptr, ptr %27, align 8, !tbaa !96
  %29 = getelementptr inbounds i8, ptr %28, i64 -4
  store ptr %29, ptr %27, align 8, !tbaa !96
  %30 = load ptr, ptr %2, align 8, !tbaa !94
  %31 = getelementptr inbounds nuw %struct.rev_struct, ptr %30, i32 0, i32 3
  %32 = load i32, ptr %31, align 4, !tbaa !98
  %33 = sub nsw i32 %32, 4
  store i32 %33, ptr %31, align 4, !tbaa !98
  br label %65

34:                                               ; preds = %15
  %35 = load ptr, ptr %2, align 8, !tbaa !94
  %36 = getelementptr inbounds nuw %struct.rev_struct, ptr %35, i32 0, i32 3
  %37 = load i32, ptr %36, align 4, !tbaa !98
  %38 = icmp sgt i32 %37, 0
  br i1 %38, label %39, label %64

39:                                               ; preds = %34
  call void @llvm.lifetime.start.p0(i64 4, ptr %8) #7
  store i32 24, ptr %8, align 4, !tbaa !10
  br label %40

40:                                               ; preds = %45, %39
  %41 = load ptr, ptr %2, align 8, !tbaa !94
  %42 = getelementptr inbounds nuw %struct.rev_struct, ptr %41, i32 0, i32 3
  %43 = load i32, ptr %42, align 4, !tbaa !98
  %44 = icmp sgt i32 %43, 0
  br i1 %44, label %45, label %63

45:                                               ; preds = %40
  call void @llvm.lifetime.start.p0(i64 4, ptr %9) #7
  %46 = load ptr, ptr %2, align 8, !tbaa !94
  %47 = getelementptr inbounds nuw %struct.rev_struct, ptr %46, i32 0, i32 0
  %48 = load ptr, ptr %47, align 8, !tbaa !96
  %49 = getelementptr inbounds i8, ptr %48, i32 -1
  store ptr %49, ptr %47, align 8, !tbaa !96
  %50 = load i8, ptr %48, align 1, !tbaa !51
  %51 = zext i8 %50 to i32
  store i32 %51, ptr %9, align 4, !tbaa !10
  %52 = load i32, ptr %9, align 4, !tbaa !10
  %53 = load i32, ptr %8, align 4, !tbaa !10
  %54 = shl i32 %52, %53
  %55 = load i32, ptr %3, align 4, !tbaa !10
  %56 = or i32 %55, %54
  store i32 %56, ptr %3, align 4, !tbaa !10
  %57 = load ptr, ptr %2, align 8, !tbaa !94
  %58 = getelementptr inbounds nuw %struct.rev_struct, ptr %57, i32 0, i32 3
  %59 = load i32, ptr %58, align 4, !tbaa !98
  %60 = add nsw i32 %59, -1
  store i32 %60, ptr %58, align 4, !tbaa !98
  %61 = load i32, ptr %8, align 4, !tbaa !10
  %62 = sub nsw i32 %61, 8
  store i32 %62, ptr %8, align 4, !tbaa !10
  call void @llvm.lifetime.end.p0(i64 4, ptr %9) #7
  br label %40, !llvm.loop !117

63:                                               ; preds = %40
  call void @llvm.lifetime.end.p0(i64 4, ptr %8) #7
  br label %64

64:                                               ; preds = %63, %34
  br label %65

65:                                               ; preds = %64, %20
  %66 = load i32, ptr %3, align 4, !tbaa !10
  %67 = lshr i32 %66, 24
  store i32 %67, ptr %4, align 4, !tbaa !10
  %68 = load ptr, ptr %2, align 8, !tbaa !94
  %69 = getelementptr inbounds nuw %struct.rev_struct, ptr %68, i32 0, i32 4
  %70 = load i32, ptr %69, align 8, !tbaa !101
  %71 = icmp ne i32 %70, 0
  br i1 %71, label %72, label %77

72:                                               ; preds = %65
  %73 = load i32, ptr %3, align 4, !tbaa !10
  %74 = lshr i32 %73, 24
  %75 = and i32 %74, 127
  %76 = icmp eq i32 %75, 127
  br label %77

77:                                               ; preds = %72, %65
  %78 = phi i1 [ false, %65 ], [ %76, %72 ]
  %79 = select i1 %78, i32 1, i32 0
  %80 = sub i32 8, %79
  store i32 %80, ptr %5, align 4, !tbaa !10
  %81 = load i32, ptr %3, align 4, !tbaa !10
  %82 = lshr i32 %81, 24
  %83 = icmp ugt i32 %82, 143
  %84 = zext i1 %83 to i32
  store i32 %84, ptr %6, align 4, !tbaa !10
  %85 = load i32, ptr %3, align 4, !tbaa !10
  %86 = lshr i32 %85, 16
  %87 = and i32 %86, 255
  %88 = load i32, ptr %5, align 4, !tbaa !10
  %89 = shl i32 %87, %88
  %90 = load i32, ptr %4, align 4, !tbaa !10
  %91 = or i32 %90, %89
  store i32 %91, ptr %4, align 4, !tbaa !10
  %92 = load i32, ptr %6, align 4, !tbaa !10
  %93 = icmp ne i32 %92, 0
  br i1 %93, label %94, label %99

94:                                               ; preds = %77
  %95 = load i32, ptr %3, align 4, !tbaa !10
  %96 = lshr i32 %95, 16
  %97 = and i32 %96, 127
  %98 = icmp eq i32 %97, 127
  br label %99

99:                                               ; preds = %94, %77
  %100 = phi i1 [ false, %77 ], [ %98, %94 ]
  %101 = select i1 %100, i32 1, i32 0
  %102 = sub i32 8, %101
  %103 = load i32, ptr %5, align 4, !tbaa !10
  %104 = add i32 %103, %102
  store i32 %104, ptr %5, align 4, !tbaa !10
  %105 = load i32, ptr %3, align 4, !tbaa !10
  %106 = lshr i32 %105, 16
  %107 = and i32 %106, 255
  %108 = icmp ugt i32 %107, 143
  %109 = zext i1 %108 to i32
  store i32 %109, ptr %6, align 4, !tbaa !10
  %110 = load i32, ptr %3, align 4, !tbaa !10
  %111 = lshr i32 %110, 8
  %112 = and i32 %111, 255
  %113 = load i32, ptr %5, align 4, !tbaa !10
  %114 = shl i32 %112, %113
  %115 = load i32, ptr %4, align 4, !tbaa !10
  %116 = or i32 %115, %114
  store i32 %116, ptr %4, align 4, !tbaa !10
  %117 = load i32, ptr %6, align 4, !tbaa !10
  %118 = icmp ne i32 %117, 0
  br i1 %118, label %119, label %124

119:                                              ; preds = %99
  %120 = load i32, ptr %3, align 4, !tbaa !10
  %121 = lshr i32 %120, 8
  %122 = and i32 %121, 127
  %123 = icmp eq i32 %122, 127
  br label %124

124:                                              ; preds = %119, %99
  %125 = phi i1 [ false, %99 ], [ %123, %119 ]
  %126 = select i1 %125, i32 1, i32 0
  %127 = sub i32 8, %126
  %128 = load i32, ptr %5, align 4, !tbaa !10
  %129 = add i32 %128, %127
  store i32 %129, ptr %5, align 4, !tbaa !10
  %130 = load i32, ptr %3, align 4, !tbaa !10
  %131 = lshr i32 %130, 8
  %132 = and i32 %131, 255
  %133 = icmp ugt i32 %132, 143
  %134 = zext i1 %133 to i32
  store i32 %134, ptr %6, align 4, !tbaa !10
  %135 = load i32, ptr %3, align 4, !tbaa !10
  %136 = and i32 %135, 255
  %137 = load i32, ptr %5, align 4, !tbaa !10
  %138 = shl i32 %136, %137
  %139 = load i32, ptr %4, align 4, !tbaa !10
  %140 = or i32 %139, %138
  store i32 %140, ptr %4, align 4, !tbaa !10
  %141 = load i32, ptr %6, align 4, !tbaa !10
  %142 = icmp ne i32 %141, 0
  br i1 %142, label %143, label %147

143:                                              ; preds = %124
  %144 = load i32, ptr %3, align 4, !tbaa !10
  %145 = and i32 %144, 127
  %146 = icmp eq i32 %145, 127
  br label %147

147:                                              ; preds = %143, %124
  %148 = phi i1 [ false, %124 ], [ %146, %143 ]
  %149 = select i1 %148, i32 1, i32 0
  %150 = sub i32 8, %149
  %151 = load i32, ptr %5, align 4, !tbaa !10
  %152 = add i32 %151, %150
  store i32 %152, ptr %5, align 4, !tbaa !10
  %153 = load i32, ptr %3, align 4, !tbaa !10
  %154 = and i32 %153, 255
  %155 = icmp ugt i32 %154, 143
  %156 = zext i1 %155 to i32
  store i32 %156, ptr %6, align 4, !tbaa !10
  %157 = load i32, ptr %4, align 4, !tbaa !10
  %158 = zext i32 %157 to i64
  %159 = load ptr, ptr %2, align 8, !tbaa !94
  %160 = getelementptr inbounds nuw %struct.rev_struct, ptr %159, i32 0, i32 2
  %161 = load i32, ptr %160, align 8, !tbaa !100
  %162 = zext i32 %161 to i64
  %163 = shl i64 %158, %162
  %164 = load ptr, ptr %2, align 8, !tbaa !94
  %165 = getelementptr inbounds nuw %struct.rev_struct, ptr %164, i32 0, i32 1
  %166 = load i64, ptr %165, align 8, !tbaa !99
  %167 = or i64 %166, %163
  store i64 %167, ptr %165, align 8, !tbaa !99
  %168 = load i32, ptr %5, align 4, !tbaa !10
  %169 = load ptr, ptr %2, align 8, !tbaa !94
  %170 = getelementptr inbounds nuw %struct.rev_struct, ptr %169, i32 0, i32 2
  %171 = load i32, ptr %170, align 8, !tbaa !100
  %172 = add i32 %171, %168
  store i32 %172, ptr %170, align 8, !tbaa !100
  %173 = load i32, ptr %6, align 4, !tbaa !10
  %174 = load ptr, ptr %2, align 8, !tbaa !94
  %175 = getelementptr inbounds nuw %struct.rev_struct, ptr %174, i32 0, i32 4
  store i32 %173, ptr %175, align 8, !tbaa !101
  store i32 0, ptr %7, align 4
  br label %176

176:                                              ; preds = %147, %14
  call void @llvm.lifetime.end.p0(i64 4, ptr %6) #7
  call void @llvm.lifetime.end.p0(i64 4, ptr %5) #7
  call void @llvm.lifetime.end.p0(i64 4, ptr %4) #7
  call void @llvm.lifetime.end.p0(i64 4, ptr %3) #7
  %177 = load i32, ptr %7, align 4
  switch i32 %177, label %179 [
    i32 0, label %178
    i32 1, label %178
  ]

178:                                              ; preds = %176, %176
  ret void

179:                                              ; preds = %176
  unreachable
}

; Function Attrs: inlinehint nounwind uwtable
define internal i32 @rev_fetch_mrp(ptr noundef %0) #4 {
  %2 = alloca ptr, align 8
  store ptr %0, ptr %2, align 8, !tbaa !94
  %3 = load ptr, ptr %2, align 8, !tbaa !94
  %4 = getelementptr inbounds nuw %struct.rev_struct, ptr %3, i32 0, i32 2
  %5 = load i32, ptr %4, align 8, !tbaa !100
  %6 = icmp ult i32 %5, 32
  br i1 %6, label %7, label %16

7:                                                ; preds = %1
  %8 = load ptr, ptr %2, align 8, !tbaa !94
  call void @rev_read_mrp(ptr noundef %8)
  %9 = load ptr, ptr %2, align 8, !tbaa !94
  %10 = getelementptr inbounds nuw %struct.rev_struct, ptr %9, i32 0, i32 2
  %11 = load i32, ptr %10, align 8, !tbaa !100
  %12 = icmp ult i32 %11, 32
  br i1 %12, label %13, label %15

13:                                               ; preds = %7
  %14 = load ptr, ptr %2, align 8, !tbaa !94
  call void @rev_read_mrp(ptr noundef %14)
  br label %15

15:                                               ; preds = %13, %7
  br label %16

16:                                               ; preds = %15, %1
  %17 = load ptr, ptr %2, align 8, !tbaa !94
  %18 = getelementptr inbounds nuw %struct.rev_struct, ptr %17, i32 0, i32 1
  %19 = load i64, ptr %18, align 8, !tbaa !99
  %20 = trunc i64 %19 to i32
  ret i32 %20
}